target datalayout = "e-m:e-p270:32:32-p271:32:32-p272:64:64-i64:64-i128:128-f80:128-n8:16:32:64-S128"
target triple = "x86_64-pc-linux-gnu"

%struct.archive_read = type { %struct.archive, ptr, i32, i64, i64, %struct.archive_read_client, [16 x %struct.archive_read_filter_bidder], ptr, i32, i64, i32, i32, [16 x %struct.archive_format_descriptor], ptr, ptr, ptr, %struct.anon }
%struct.archive = type { i32, i32, ptr, i32, ptr, i32, i32, ptr, %struct.archive_string, ptr, i32, i32, ptr, ptr, i64, i64, i64, i8, i64 }
%struct.archive_string = type { ptr, i64, i64 }
%struct.archive_read_client = type { ptr, ptr, ptr, ptr, ptr, ptr, i32, i32, i64, ptr }
%struct.archive_read_filter_bidder = type { ptr, ptr, ptr }
%struct.archive_format_descriptor = type { ptr, ptr, ptr, ptr, ptr, ptr, ptr, ptr, ptr, ptr, ptr }
%struct.anon = type { ptr, ptr, i32, ptr, ptr }
%struct.rar = type { i32, i64, [2 x i8], [4 x i8], i8, i8, i32, i64, i64, i64, i64, i32, ptr, ptr, i64, i64, [8 x i8], i64, i64, i64, i64, i64, i64, i64, i64, i64, i64, i64, i64, i8, i32, i32, ptr, i32, i8, i8, i64, i32, i8, ptr, i32, i32, i8, %struct.huffman_code, %struct.huffman_code, %struct.huffman_code, %struct.huffman_code, [404 x i8], %struct.lzss, i32, i32, [4 x i32], i32, i32, i8, %struct.rar_filters, i8, i8, i8, i32, %struct.CPpmd7, %struct.CPpmd7z_RangeDec, %struct.IByteIn, i32, ptr, ptr, ptr, ptr, %struct.rar_br, i32 }
%struct.huffman_code = type { ptr, i32, i32, i32, i32, i32, ptr }
%struct.lzss = type { ptr, i32, i64 }
%struct.rar_filters = type { ptr, ptr, ptr, i64, i32, i64, ptr, i64 }
%struct.CPpmd7 = type { ptr, ptr, ptr, i32, i32, i32, i32, i32, i32, i32, i32, i32, ptr, ptr, ptr, ptr, ptr, i32, [38 x i8], [128 x i8], [38 x i32], [256 x i8], [256 x i8], [256 x i8], %struct.CPpmd_See, [25 x [16 x %struct.CPpmd_See]], [128 x [64 x i16]] }
%struct.CPpmd_See = type { i16, i8, i8 }
%struct.CPpmd7z_RangeDec = type { %struct.IPpmd7_RangeDec, i32, i32, i32, i32, ptr }
%struct.IPpmd7_RangeDec = type { ptr, ptr, ptr }
%struct.IByteIn = type { ptr, ptr }
%struct.rar_br = type { i64, i32, i64, ptr }

; Function Attrs: nounwind uwtable
define internal i32 @archive_read_format_rar_has_encrypted_entries(ptr noundef %0) #0 {
  %2 = alloca i32, align 4
  %3 = alloca ptr, align 8
  %4 = alloca ptr, align 8
  store ptr %0, ptr %3, align 8
  %5 = load ptr, ptr %3, align 8
  %6 = icmp ne ptr %5, null
  br i1 %6, label %7, label %25

7:                                                ; preds = %1
  %8 = load ptr, ptr %3, align 8
  %9 = getelementptr inbounds %struct.archive_read, ptr %8, i32 0, i32 13
  %10 = load ptr, ptr %9, align 8
  %11 = icmp ne ptr %10, null
  br i1 %11, label %12, label %25

12:                                               ; preds = %7
  %13 = load ptr, ptr %3, align 8
  %14 = getelementptr inbounds %struct.archive_read, ptr %13, i32 0, i32 13
  %15 = load ptr, ptr %14, align 8
  %16 = getelementptr inbounds %struct.archive_format_descriptor, ptr %15, i32 0, i32 0
  %17 = load ptr, ptr %16, align 8
  store ptr %17, ptr %4, align 8
  %18 = load ptr, ptr %4, align 8
  %19 = icmp ne ptr %18, null
  br i1 %19, label %20, label %24

20:                                               ; preds = %12
  %21 = load ptr, ptr %4, align 8
  %22 = getelementptr inbounds %struct.rar, ptr %21, i32 0, i32 69
  %23 = load i32, ptr %22, align 8
  store i32 %23, ptr %2, align 4
  br label %26

24:                                               ; preds = %12
  br label %25

25:                                               ; preds = %24, %7, %1
  store i32 -1, ptr %2, align 4
  br label %26

26:                                               ; preds = %25, %20
  %27 = load i32, ptr %2, align 4
  ret i32 %27
}