; Function Attrs: mustprogress nofree norecurse nosync nounwind willreturn memory(read, inaccessiblemem: none) uwtable
define internal i32 @archive_read_format_rar_has_encrypted_entries(ptr noundef readonly %0) #4 {
  %.not = icmp eq ptr %0, null
  br i1 %.not, label %10, label %2

2:                                                ; preds = %1
  %3 = getelementptr inbounds nuw i8, ptr %0, i64 2072
  %4 = load ptr, ptr %3, align 8
  %.not8 = icmp eq ptr %4, null
  br i1 %.not8, label %10, label %5

5:                                                ; preds = %2
  %6 = load ptr, ptr %4, align 8
  %.not9 = icmp eq ptr %6, null
  br i1 %.not9, label %10, label %7

7:                                                ; preds = %5
  %8 = getelementptr inbounds nuw i8, ptr %6, i64 20304
  %9 = load i32, ptr %8, align 8
  br label %10

10:                                               ; preds = %1, %2, %5, %7
  %.0 = phi i32 [ %9, %7 ], [ -1, %5 ], [ -1, %2 ], [ -1, %1 ]
  ret i32 %.0
}